target datalayout = "e-m:e-p270:32:32-p271:32:32-p272:64:64-i64:64-i128:128-f80:128-n8:16:32:64-S128"
target triple = "x86_64-pc-linux-gnu"

%"class.std::vector.34" = type { %"struct.std::_Vector_base.35" }
%"struct.std::_Vector_base.35" = type { %"struct.std::_Vector_base<const Luau::TypeFunctionType *, std::allocator<const Luau::TypeFunctionType *>>::_Vector_impl" }
%"struct.std::_Vector_base<const Luau::TypeFunctionType *, std::allocator<const Luau::TypeFunctionType *>>::_Vector_impl" = type { %"struct.std::_Vector_base<const Luau::TypeFunctionType *, std::allocator<const Luau::TypeFunctionType *>>::_Vector_impl_data" }
%"struct.std::_Vector_base<const Luau::TypeFunctionType *, std::allocator<const Luau::TypeFunctionType *>>::_Vector_impl_data" = type { ptr, ptr, ptr }
%"struct.Luau::TypeFunctionTypePack" = type { %"class.std::vector.34", %"class.std::optional.61" }
%"class.std::optional.61" = type { %"struct.std::_Optional_base.62" }
%"struct.std::_Optional_base.62" = type { %"struct.std::_Optional_payload.64" }
%"struct.std::_Optional_payload.64" = type { %"struct.std::_Optional_payload_base.base.66", [7 x i8] }
%"struct.std::_Optional_payload_base.base.66" = type <{ %"union.std::_Optional_payload_base<const Luau::TypeFunctionTypePackVar *>::_Storage", i8 }>
%"union.std::_Optional_payload_base<const Luau::TypeFunctionTypePackVar *>::_Storage" = type { ptr }
%"class.__gnu_cxx::__normal_iterator" = type { ptr }

; Function Attrs: mustprogress nounwind uwtable
define linkonce_odr dso_local noundef nonnull align 8 dereferenceable(8) ptr @_ZNK9__gnu_cxx17__normal_iteratorIPKPKN4Luau16TypeFunctionTypeESt6vectorIS4_SaIS4_EEE4baseEv(ptr noundef nonnull align 8 dereferenceable(8) %0) #2 comdat align 2 {
  %2 = alloca ptr, align 8
  store ptr %0, ptr %2, align 8, !tbaa !158
  %3 = load ptr, ptr %2, align 8
  %4 = getelementptr inbounds nuw %"class.__gnu_cxx::__normal_iterator", ptr %3, i32 0, i32 0
  ret ptr %4
}

; Function Attrs: mustprogress nounwind uwtable
define linkonce_odr dso_local void @_ZN9__gnu_cxx17__normal_iteratorIPKPKN4Luau16TypeFunctionTypeESt6vectorIS4_SaIS4_EEEC2ERKS6_(ptr noundef nonnull align 8 dereferenceable(8) %0, ptr noundef nonnull align 8 dereferenceable(8) %1) unnamed_addr #2 comdat align 2 {
  %3 = alloca ptr, align 8
  %4 = alloca ptr, align 8
  store ptr %0, ptr %3, align 8, !tbaa !158
  store ptr %1, ptr %4, align 8, !tbaa !288
  %5 = load ptr, ptr %3, align 8
  %6 = getelementptr inbounds nuw %"class.__gnu_cxx::__normal_iterator", ptr %5, i32 0, i32 0
  %7 = load ptr, ptr %4, align 8, !tbaa !288
  %8 = load ptr, ptr %7, align 8, !tbaa !60
  store ptr %8, ptr %6, align 8, !tbaa !160
  ret void
}

; Function Attrs: mustprogress nounwind uwtable
define linkonce_odr dso_local noundef nonnull align 8 dereferenceable(8) ptr @_ZN9__gnu_cxx17__normal_iteratorIPKPKN4Luau16TypeFunctionTypeESt6vectorIS4_SaIS4_EEEppEv(ptr noundef nonnull align 8 dereferenceable(8) %0) #2 comdat align 2 {
  %2 = alloca ptr, align 8
  store ptr %0, ptr %2, align 8, !tbaa !158
  %3 = load ptr, ptr %2, align 8
  %4 = getelementptr inbounds nuw %"class.__gnu_cxx::__normal_iterator", ptr %3, i32 0, i32 0
  %5 = load ptr, ptr %4, align 8, !tbaa !160
  %6 = getelementptr inbounds nuw ptr, ptr %5, i32 1
  store ptr %6, ptr %4, align 8, !tbaa !160
  ret ptr %3
}

; Function Attrs: mustprogress nounwind uwtable
define linkonce_odr dso_local noundef nonnull align 8 dereferenceable(8) ptr @_ZNK9__gnu_cxx17__normal_iteratorIPKPKN4Luau16TypeFunctionTypeESt6vectorIS4_SaIS4_EEEdeEv(ptr noundef nonnull align 8 dereferenceable(8) %0) #2 comdat align 2 {
  %2 = alloca ptr, align 8
  store ptr %0, ptr %2, align 8, !tbaa !158
  %3 = load ptr, ptr %2, align 8
  %4 = getelementptr inbounds nuw %"class.__gnu_cxx::__normal_iterator", ptr %3, i32 0, i32 0
  %5 = load ptr, ptr %4, align 8, !tbaa !160
  ret ptr %5
}

; Function Attrs: inlinehint mustprogress nounwind uwtable
define linkonce_odr dso_local noundef zeroext i1 @_ZN9__gnu_cxxneIPKPKN4Luau16TypeFunctionTypeESt6vectorIS4_SaIS4_EEEEbRKNS_17__normal_iteratorIT_T0_EESF_(ptr noundef nonnull align 8 dereferenceable(8) %0, ptr noundef nonnull align 8 dereferenceable(8) %1) #10 comdat {
  %3 = alloca ptr, align 8
  %4 = alloca ptr, align 8
  store ptr %0, ptr %3, align 8, !tbaa !158
  store ptr %1, ptr %4, align 8, !tbaa !158
  %5 = load ptr, ptr %3, align 8, !tbaa !158
  %6 = call noundef nonnull align 8 dereferenceable(8) ptr @_ZNK9__gnu_cxx17__normal_iteratorIPKPKN4Luau16TypeFunctionTypeESt6vectorIS4_SaIS4_EEE4baseEv(ptr noundef nonnull align 8 dereferenceable(8) %5) #17
  %7 = load ptr, ptr %6, align 8, !tbaa !60
  %8 = load ptr, ptr %4, align 8, !tbaa !158
  %9 = call noundef nonnull align 8 dereferenceable(8) ptr @_ZNK9__gnu_cxx17__normal_iteratorIPKPKN4Luau16TypeFunctionTypeESt6vectorIS4_SaIS4_EEE4baseEv(ptr noundef nonnull align 8 dereferenceable(8) %8) #17
  %10 = load ptr, ptr %9, align 8, !tbaa !60
  %11 = icmp ne ptr %7, %10
  ret i1 %11
}

; Function Attrs: mustprogress nounwind uwtable
define linkonce_odr dso_local ptr @_ZNKSt6vectorIPKN4Luau16TypeFunctionTypeESaIS3_EE3endEv(ptr noundef nonnull align 8 dereferenceable(24) %0) #2 comdat align 2 {
  %2 = alloca %"class.__gnu_cxx::__normal_iterator", align 8
  %3 = alloca ptr, align 8
  store ptr %0, ptr %3, align 8, !tbaa !83
  %4 = load ptr, ptr %3, align 8
  %5 = getelementptr inbounds nuw %"struct.std::_Vector_base.35", ptr %4, i32 0, i32 0
  %6 = getelementptr inbounds nuw %"struct.std::_Vector_base<const Luau::TypeFunctionType *, std::allocator<const Luau::TypeFunctionType *>>::_Vector_impl_data", ptr %5, i32 0, i32 1
  call void @_ZN9__gnu_cxx17__normal_iteratorIPKPKN4Luau16TypeFunctionTypeESt6vectorIS4_SaIS4_EEEC2ERKS6_(ptr noundef nonnull align 8 dereferenceable(8) %2, ptr noundef nonnull align 8 dereferenceable(8) %6) #17
  %7 = getelementptr inbounds nuw %"class.__gnu_cxx::__normal_iterator", ptr %2, i32 0, i32 0
  %8 = load ptr, ptr %7, align 8
  ret ptr %8
}

; Function Attrs: mustprogress nounwind uwtable
define linkonce_odr dso_local ptr @_ZNKSt6vectorIPKN4Luau16TypeFunctionTypeESaIS3_EE5beginEv(ptr noundef nonnull align 8 dereferenceable(24) %0) #2 comdat align 2 {
  %2 = alloca %"class.__gnu_cxx::__normal_iterator", align 8
  %3 = alloca ptr, align 8
  store ptr %0, ptr %3, align 8, !tbaa !83
  %4 = load ptr, ptr %3, align 8
  %5 = getelementptr inbounds nuw %"struct.std::_Vector_base.35", ptr %4, i32 0, i32 0
  %6 = getelementptr inbounds nuw %"struct.std::_Vector_base<const Luau::TypeFunctionType *, std::allocator<const Luau::TypeFunctionType *>>::_Vector_impl_data", ptr %5, i32 0, i32 0
  call void @_ZN9__gnu_cxx17__normal_iteratorIPKPKN4Luau16TypeFunctionTypeESt6vectorIS4_SaIS4_EEEC2ERKS6_(ptr noundef nonnull align 8 dereferenceable(8) %2, ptr noundef nonnull align 8 dereferenceable(8) %6) #17
  %7 = getelementptr inbounds nuw %"class.__gnu_cxx::__normal_iterator", ptr %2, i32 0, i32 0
  %8 = load ptr, ptr %7, align 8
  ret ptr %8
}

; Function Attrs: mustprogress nounwind uwtable
define linkonce_odr dso_local noundef i64 @_ZNKSt6vectorIPKN4Luau16TypeFunctionTypeESaIS3_EE4sizeEv(ptr noundef nonnull align 8 dereferenceable(24) %0) #2 comdat align 2 {
  %2 = alloca ptr, align 8
  store ptr %0, ptr %2, align 8, !tbaa !83
  %3 = load ptr, ptr %2, align 8
  %4 = getelementptr inbounds nuw %"struct.std::_Vector_base.35", ptr %3, i32 0, i32 0
  %5 = getelementptr inbounds nuw %"struct.std::_Vector_base<const Luau::TypeFunctionType *, std::allocator<const Luau::TypeFunctionType *>>::_Vector_impl_data", ptr %4, i32 0, i32 1
  %6 = load ptr, ptr %5, align 8, !tbaa !156
  %7 = getelementptr inbounds nuw %"struct.std::_Vector_base.35", ptr %3, i32 0, i32 0
  %8 = getelementptr inbounds nuw %"struct.std::_Vector_base<const Luau::TypeFunctionType *, std::allocator<const Luau::TypeFunctionType *>>::_Vector_impl_data", ptr %7, i32 0, i32 0
  %9 = load ptr, ptr %8, align 8, !tbaa !157
  %10 = ptrtoint ptr %6 to i64
  %11 = ptrtoint ptr %9 to i64
  %12 = sub i64 %10, %11
  %13 = sdiv exact i64 %12, 8
  ret i64 %13
}

; Function Attrs: mustprogress uwtable
define dso_local noundef zeroext i1 @_ZN4Luau8areEqualERSt3setISt4pairIPKvS3_ESt4lessIS4_ESaIS4_EERKNS_20TypeFunctionTypePackESC_(ptr noundef nonnull align 8 dereferenceable(48) %0, ptr noundef nonnull align 8 dereferenceable(40) %1, ptr noundef nonnull align 8 dereferenceable(40) %2) #3 {
  %4 = alloca i1, align 1
  %5 = alloca ptr, align 8
  %6 = alloca ptr, align 8
  %7 = alloca ptr, align 8
  %8 = alloca %"class.__gnu_cxx::__normal_iterator", align 8
  %9 = alloca %"class.__gnu_cxx::__normal_iterator", align 8
  %10 = alloca %"class.__gnu_cxx::__normal_iterator", align 8
  %11 = alloca i32, align 4
  store ptr %0, ptr %5, align 8, !tbaa !145
  store ptr %1, ptr %6, align 8, !tbaa !176
  store ptr %2, ptr %7, align 8, !tbaa !176
  %12 = load ptr, ptr %6, align 8, !tbaa !176
  %13 = getelementptr inbounds nuw %"struct.Luau::TypeFunctionTypePack", ptr %12, i32 0, i32 0
  %14 = call noundef i64 @_ZNKSt6vectorIPKN4Luau16TypeFunctionTypeESaIS3_EE4sizeEv(ptr noundef nonnull align 8 dereferenceable(24) %13) #17
  %15 = load ptr, ptr %7, align 8, !tbaa !176
  %16 = getelementptr inbounds nuw %"struct.Luau::TypeFunctionTypePack", ptr %15, i32 0, i32 0
  %17 = call noundef i64 @_ZNKSt6vectorIPKN4Luau16TypeFunctionTypeESaIS3_EE4sizeEv(ptr noundef nonnull align 8 dereferenceable(24) %16) #17
  %18 = icmp ne i64 %14, %17
  br i1 %18, label %19, label %20

19:                                               ; preds = %3
  store i1 false, ptr %4, align 1
  br label %48

20:                                               ; preds = %3
  call void @llvm.lifetime.start.p0(i64 8, ptr %8) #17
  %21 = load ptr, ptr %6, align 8, !tbaa !176
  %22 = getelementptr inbounds nuw %"struct.Luau::TypeFunctionTypePack", ptr %21, i32 0, i32 0
  %23 = call ptr @_ZNKSt6vectorIPKN4Luau16TypeFunctionTypeESaIS3_EE5beginEv(ptr noundef nonnull align 8 dereferenceable(24) %22) #17
  %24 = getelementptr inbounds nuw %"class.__gnu_cxx::__normal_iterator", ptr %8, i32 0, i32 0
  store ptr %23, ptr %24, align 8
  call void @llvm.lifetime.start.p0(i64 8, ptr %9) #17
  %25 = load ptr, ptr %7, align 8, !tbaa !176
  %26 = getelementptr inbounds nuw %"struct.Luau::TypeFunctionTypePack", ptr %25, i32 0, i32 0
  %27 = call ptr @_ZNKSt6vectorIPKN4Luau16TypeFunctionTypeESaIS3_EE5beginEv(ptr noundef nonnull align 8 dereferenceable(24) %26) #17
  %28 = getelementptr inbounds nuw %"class.__gnu_cxx::__normal_iterator", ptr %9, i32 0, i32 0
  store ptr %27, ptr %28, align 8
  br label %29

29:                                               ; preds = %43, %20
  call void @llvm.lifetime.start.p0(i64 8, ptr %10) #17
  %30 = load ptr, ptr %6, align 8, !tbaa !176
  %31 = getelementptr inbounds nuw %"struct.Luau::TypeFunctionTypePack", ptr %30, i32 0, i32 0
  %32 = call ptr @_ZNKSt6vectorIPKN4Luau16TypeFunctionTypeESaIS3_EE3endEv(ptr noundef nonnull align 8 dereferenceable(24) %31) #17
  %33 = getelementptr inbounds nuw %"class.__gnu_cxx::__normal_iterator", ptr %10, i32 0, i32 0
  store ptr %32, ptr %33, align 8
  %34 = call noundef zeroext i1 @_ZN9__gnu_cxxneIPKPKN4Luau16TypeFunctionTypeESt6vectorIS4_SaIS4_EEEEbRKNS_17__normal_iteratorIT_T0_EESF_(ptr noundef nonnull align 8 dereferenceable(8) %8, ptr noundef nonnull align 8 dereferenceable(8) %10) #17
  call void @llvm.lifetime.end.p0(i64 8, ptr %10) #17
  br i1 %34, label %35, label %46

35:                                               ; preds = %29
  %36 = load ptr, ptr %5, align 8, !tbaa !145
  %37 = call noundef nonnull align 8 dereferenceable(8) ptr @_ZNK9__gnu_cxx17__normal_iteratorIPKPKN4Luau16TypeFunctionTypeESt6vectorIS4_SaIS4_EEEdeEv(ptr noundef nonnull align 8 dereferenceable(8) %8) #17
  %38 = load ptr, ptr %37, align 8, !tbaa !45
  %39 = call noundef nonnull align 8 dereferenceable(8) ptr @_ZNK9__gnu_cxx17__normal_iteratorIPKPKN4Luau16TypeFunctionTypeESt6vectorIS4_SaIS4_EEEdeEv(ptr noundef nonnull align 8 dereferenceable(8) %9) #17
  %40 = load ptr, ptr %39, align 8, !tbaa !45
  %41 = call noundef zeroext i1 @_ZN4Luau8areEqualERSt3setISt4pairIPKvS3_ESt4lessIS4_ESaIS4_EERKNS_16TypeFunctionTypeESC_(ptr noundef nonnull align 8 dereferenceable(48) %36, ptr noundef nonnull align 8 dereferenceable(152) %38, ptr noundef nonnull align 8 dereferenceable(152) %40)
  br i1 %41, label %43, label %42

42:                                               ; preds = %35
  store i1 false, ptr %4, align 1
  store i32 1, ptr %11, align 4
  br label %47

43:                                               ; preds = %35
  %44 = call noundef nonnull align 8 dereferenceable(8) ptr @_ZN9__gnu_cxx17__normal_iteratorIPKPKN4Luau16TypeFunctionTypeESt6vectorIS4_SaIS4_EEEppEv(ptr noundef nonnull align 8 dereferenceable(8) %8) #17
  %45 = call noundef nonnull align 8 dereferenceable(8) ptr @_ZN9__gnu_cxx17__normal_iteratorIPKPKN4Luau16TypeFunctionTypeESt6vectorIS4_SaIS4_EEEppEv(ptr noundef nonnull align 8 dereferenceable(8) %9) #17
  br label %29, !llvm.loop !201

46:                                               ; preds = %29
  store i1 true, ptr %4, align 1
  store i32 1, ptr %11, align 4
  br label %47

47:                                               ; preds = %46, %42
  call void @llvm.lifetime.end.p0(i64 8, ptr %9) #17
  call void @llvm.lifetime.end.p0(i64 8, ptr %8) #17
  br label %48

48:                                               ; preds = %47, %19
  %49 = load i1, ptr %4, align 1
  ret i1 %49
}