; Function Attrs: mustprogress uwtable
define dso_local noundef zeroext i1 @_ZN4Luau8areEqualERSt3setISt4pairIPKvS3_ESt4lessIS4_ESaIS4_EERKNS_20TypeFunctionTypePackESC_(ptr noundef nonnull align 8 dereferenceable(48) %0, ptr noundef nonnull readonly align 8 captures(none) dereferenceable(40) %1, ptr noundef nonnull readonly align 8 captures(none) dereferenceable(40) %2) local_unnamed_addr #2 {
  %4 = getelementptr inbounds nuw i8, ptr %1, i64 8
  %5 = load ptr, ptr %4, align 8, !tbaa !61
  %6 = load ptr, ptr %1, align 8, !tbaa !59
  %7 = ptrtoint ptr %5 to i64
  %8 = ptrtoint ptr %6 to i64
  %9 = sub i64 %7, %8
  %10 = getelementptr inbounds nuw i8, ptr %2, i64 8
  %11 = load ptr, ptr %10, align 8, !tbaa !61
  %12 = load ptr, ptr %2, align 8, !tbaa !59
  %13 = ptrtoint ptr %11 to i64
  %14 = ptrtoint ptr %12 to i64
  %15 = sub i64 %13, %14
  %.not = icmp eq i64 %9, %15
  br i1 %.not, label %.preheader, label %.loopexit

.preheader:                                       ; preds = %3
  %.not1213 = icmp eq ptr %6, %5
  br i1 %.not1213, label %.loopexit, label %.lr.ph

.lr.ph:                                           ; preds = %.preheader, %.lr.ph
  %.sroa.09.015 = phi ptr [ %19, %.lr.ph ], [ %6, %.preheader ]
  %.sroa.07.014 = phi ptr [ %20, %.lr.ph ], [ %12, %.preheader ]
  %16 = load ptr, ptr %.sroa.09.015, align 8, !tbaa !29
  %17 = load ptr, ptr %.sroa.07.014, align 8, !tbaa !29
  %18 = tail call noundef zeroext i1 @_ZN4Luau8areEqualERSt3setISt4pairIPKvS3_ESt4lessIS4_ESaIS4_EERKNS_16TypeFunctionTypeESC_(ptr noundef nonnull align 8 dereferenceable(48) %0, ptr noundef nonnull align 8 dereferenceable(152) %16, ptr noundef nonnull align 8 dereferenceable(152) %17)
  %19 = getelementptr inbounds nuw i8, ptr %.sroa.09.015, i64 8
  %20 = getelementptr inbounds nuw i8, ptr %.sroa.07.014, i64 8
  %21 = load ptr, ptr %4, align 8
  %.not12 = icmp ne ptr %19, %21
  %or.cond.not = select i1 %18, i1 %.not12, i1 false
  br i1 %or.cond.not, label %.lr.ph, label %.loopexit, !llvm.loop !137

.loopexit:                                        ; preds = %.lr.ph, %.preheader, %3
  %.0 = phi i1 [ false, %3 ], [ true, %.preheader ], [ %18, %.lr.ph ]
  ret i1 %.0
}